(dp0
S'Python'
p1
(dp2
S'Tkinter_Callback'
p3
(dp4
Vdef appCallback(self, name, index, mode):\u000a
p5
VDefine Callback Function\u000a
p6
sVself.option.trace_variable('w', self.helpCallback)\u000a
p7
VTrace the given variable (w is for when it changes - 'r' is for when it is read by something.)\u000a
p8
ssS'File In'
p9
(dp10
S'line=line.rstrip()\n'
p11
VWill strip the newline charactor and any extra whitespace from the right.\u000a
p12
sVfor line in FILE:\u000a
p13
VIterate over each line in file\u000a
p14
sVFILE = open(path, 'w')\u000a
p15
VOpen File Handle\u000a
p16
ssS'File Out'
p17
(dp18
VFILE.write("String")\u000a
p19
VYes, we always think we should use perl syntax..\u000a
p20
ssS'Dictionaries'
p21
(dp22
Vif not dataDic.has_key(x): dataDic[x]=dict()\u000a
p23
VHow to tell if dictionary has been declared within the dictionary.\u000a
p24
sVrandom.choice(diction.keys())\u000a
p25
VChoose a random key from the dictionary.\u000a
p26
ssS'Tkinter_SimpleDialog'
p27
(dp28
Vinitialvalue=x\u000a
p29
Vx is a string for ask string, integer for askinteger\u000a
p30
ssS'Directories'
p31
(dp32
Vos.path.isdir(fullpath)\u000a
p33
VCheck if the thing your getting with os.listdir is a directory or a folder..\u000a
p34
sVfor root, dirs, files in os.walk(directory, topdown=True):\u000a
p35
VWalkes down the directory tree create a 3-tuple.  This code will allow you to look through it.\u000a
p36
sVfor filename in os.listdir(path)\u000a
p37
VGo through each filename found\u000a
p38
ssS'Tkinter_Menu'
p39
(dp40
Vself.Help = Menu(self.main, tearoff=0)\u000a
p41
VCreate a New Menu\u000a
p42
sVself.MenBar.add_cascade(label = "Help", menu = self.Help)\u000a
p43
VAdd menu to main menu\u000a
p44
sVself.MenBar = Menu(self.main)\u000a
p45
VInitialize the Menu Bar\u000a
p46
sVself.main.config(menu=self.MenBar)\u000a
p47
VInitialize the Menu\u000a
p48
sVself.Help.add_command(label = "General")\u000a
p49
VAdd a new menu button\u000a
p50
ssS'Common Operations'
p51
(dp52
Vos.mkdir(path)\u000a
p53
VEasy.\u000a
p54
sVos.system(do this)\u000a
p55
VRun program through shell\u000a
p56
ssS'Strings'
p57
(dp58
V"%.2f"%(dataDic[pdb][mutation][protocols])\u000a
p59
VPrint to 2 decimal places\u000a
p60
sVz = a[1:5]; \u000a
p61
VReturn substring from index 1 to index 5\u000a
p62
sssS'Tcl/Tk'
p63
(dp64
sS'C++'
p65
(dp66
S'General'
p67
(dp68
Vusing namespace std;\u000a
p69
VThis is a directive. Basically organizational layers of code.  So you could use std::cout << "print" instead if you wanted to...\u000a
p70
sVusing std::cout;\u000a
p71
Vmakes cout available as function name\u000a
p72
sV// We should do this...\u000a
p73
VComment\u000a
p74
sS'int main(void) {statements;return 0;}\n'
p75
Vfunction header.  int says that the function returns an integer.  In the parenthesis, put inputs to the function. void explicitly says NO ARGUMENTS.  All statements must be seperated by a ;SEMICOLON;
p76
ssS'Libraries'
p77
(dp78
V#include <iostream>\u000a
p79
Vcin\u000acout
p80
sV#include <cmath>\u000a
p81
Vsqrt()\u000a
p82
ssS'Compiling'
p83
(dp84
Vg++ xxx.cc xxx.o\u000a
p85
V\u000a
p86
sVg++ xxx.cc -lm\u000a
p87
VTells compiler to search form library math...\u000a
p88
ssS'Input'
p89
(dp90
Vcin << carrots;\u000a
p91
VTakes a user command into the program.  Awesome. Simple.\u000a
p92
ssS'Variable Declaration'
p93
(dp94
Vyamaha=baldwin=steinway=88\u000a
p95
VGoes from right to left.  Steinway becomes 88, then baldwin becomes the value of steinway and so on.\u000a
p96
sVint carrot\u000a
p97
VDeclare an integer\u000a
p98
sVdouble y = sqrt(area)\u000a
p99
VYes you can do this...\u000a
p100
sVdouble y\u000a
p101
V\u000a
p102
ssS'Output'
p103
(dp104
Vstd::cout << "Hello" << std:\uf701\uf701\uf701:endl;\u000a
p105
VPrints Hello and ends the line. std::cout << string also works if string is a variable.  << tells the string to be input into c out. "\u005cn" Also works.
p106
sssS'Perl'
p107
(dp108
sS'Matplotlib'
p109
(dp110
S'Format'
p111
(dp112
Vplt.grid(True)\u000a\u000a
p113
VTurn grid on.\u000a
p114
sVplt.plot(x, y, 'ro')\u000a
p115
VPlot with red circles - r, o\u000a
p116
sssS'Tamil'
p117
(dp118
sS'Bash'
p119
(dp120
S'I/O'
p121
(dp122
Vcat > test.txt\u000a
p123
VCreates a new file, and pipes the next lines entered into it.  *Use Ctrl-D to signify end of file.
p124
sVwho | wc -l\u000a
p125
VWho's output becomes wc's input.  Pipe a to b while running b.\u000a
p126
ssS'Variables'
p127
(dp128
VShell Script Arguments\u000a
p129
Vecho $1\u000aIf it's greater then 9 use ${10}\u000a
p130
sVGeneral\u000a
p131
Vfirst=isaac second=tom\u000afull="isaac and tom" *Whitespace\u000anames=$first$second\u000anames="$first $second"\u000a
p132
ssS'Printing'
p133
(dp134
Vprintf "Hello \u005cn"\u000a
p135
VPrint for bash scripting.  Put variables as "blah %s %s" Hello World\u000a
p136
ssS'bug testing'
p137
(dp138
Vset -x; set +x\u000a
p139
VTurn on, then turn off tracing in a shell script. Use sh -x ___ to use it at the beginning....\u000a
p140
ssS'Programs'
p141
(dp142
Vwc\u000a
p143
VCounts number of lines, words, and charactors.  Use -l for lines.\u000a
p144
sVwho\u000a
p145
Vprints who is logged into the computer\u000a
p146
sss.